target datalayout = "e-m:e-p270:32:32-p271:32:32-p272:64:64-i64:64-i128:128-f80:128-n8:16:32:64-S128"
target triple = "x86_64-pc-linux-gnu"

%class.ciObject = type { %class.ciBaseObject.base, ptr, ptr, ptr }
%class.ciBaseObject.base = type <{ ptr, i32 }>
%class.ciConstant = type { i8, %union.anon.2 }
%union.anon.2 = type { i64 }
%"class.ciObject::ConstantValue" = type <{ %class.ciConstant, i32, [4 x i8] }>
%class.GrowableArrayBase = type { i32, i32 }
%class.GrowableArrayView = type { %class.GrowableArrayBase, ptr }

; Function Attrs: mustprogress nounwind uwtable
define linkonce_odr hidden void @_ZN10ciConstantC2Ev(ptr noundef nonnull align 8 dereferenceable(16) %0) unnamed_addr #1 comdat align 2 {
  %2 = alloca ptr, align 8
  store ptr %0, ptr %2, align 8
  %3 = load ptr, ptr %2, align 8
  %4 = getelementptr inbounds %class.ciConstant, ptr %3, i32 0, i32 0
  store i8 99, ptr %4, align 8
  %5 = getelementptr inbounds %class.ciConstant, ptr %3, i32 0, i32 1
  store i64 -1, ptr %5, align 8
  ret void
}

; Function Attrs: mustprogress nounwind uwtable
define linkonce_odr hidden { i8, i64 } @_ZNK8ciObject13ConstantValue5valueEv(ptr noundef nonnull align 8 dereferenceable(20) %0) #1 comdat align 2 {
  %2 = alloca %class.ciConstant, align 8
  %3 = alloca ptr, align 8
  store ptr %0, ptr %3, align 8
  %4 = load ptr, ptr %3, align 8
  %5 = getelementptr inbounds %"class.ciObject::ConstantValue", ptr %4, i32 0, i32 0
  call void @llvm.memcpy.p0.p0.i64(ptr align 8 %2, ptr align 8 %5, i64 16, i1 false)
  %6 = load { i8, i64 }, ptr %2, align 8
  ret { i8, i64 } %6
}

; Function Attrs: mustprogress nounwind uwtable
define linkonce_odr hidden noundef i32 @_ZNK8ciObject13ConstantValue3offEv(ptr noundef nonnull align 8 dereferenceable(20) %0) #1 comdat align 2 {
  %2 = alloca ptr, align 8
  store ptr %0, ptr %2, align 8
  %3 = load ptr, ptr %2, align 8
  %4 = getelementptr inbounds %"class.ciObject::ConstantValue", ptr %3, i32 0, i32 1
  %5 = load i32, ptr %4, align 8
  ret i32 %5
}

; Function Attrs: mustprogress nounwind uwtable
define linkonce_odr hidden noundef nonnull align 8 dereferenceable(20) ptr @_ZN17GrowableArrayViewIN8ciObject13ConstantValueEE2atEi(ptr noundef nonnull align 8 dereferenceable(16) %0, i32 noundef %1) #1 comdat align 2 {
  %3 = alloca ptr, align 8
  %4 = alloca i32, align 4
  store ptr %0, ptr %3, align 8
  store i32 %1, ptr %4, align 4
  %5 = load ptr, ptr %3, align 8
  %6 = getelementptr inbounds %class.GrowableArrayView, ptr %5, i32 0, i32 1
  %7 = load ptr, ptr %6, align 8
  %8 = load i32, ptr %4, align 4
  %9 = sext i32 %8 to i64
  %10 = getelementptr inbounds %"class.ciObject::ConstantValue", ptr %7, i64 %9
  ret ptr %10
}

; Function Attrs: mustprogress nounwind uwtable
define linkonce_odr hidden noundef i32 @_ZNK17GrowableArrayBase6lengthEv(ptr noundef nonnull align 4 dereferenceable(8) %0) #1 comdat align 2 {
  %2 = alloca ptr, align 8
  store ptr %0, ptr %2, align 8
  %3 = load ptr, ptr %2, align 8
  %4 = getelementptr inbounds %class.GrowableArrayBase, ptr %3, i32 0, i32 0
  %5 = load i32, ptr %4, align 4
  ret i32 %5
}

; Function Attrs: mustprogress nounwind uwtable
define hidden { i8, i64 } @_ZN8ciObject26check_constant_value_cacheEi9BasicType(ptr noundef nonnull align 8 dereferenceable(40) %0, i32 noundef %1, i8 noundef zeroext %2) #1 align 2 {
  %4 = alloca %class.ciConstant, align 8
  %5 = alloca ptr, align 8
  %6 = alloca i32, align 4
  %7 = alloca i8, align 1
  %8 = alloca i32, align 4
  %9 = alloca %"class.ciObject::ConstantValue", align 8
  store ptr %0, ptr %5, align 8
  store i32 %1, ptr %6, align 4
  store i8 %2, ptr %7, align 1
  %10 = load ptr, ptr %5, align 8
  %11 = getelementptr inbounds %class.ciObject, ptr %10, i32 0, i32 3
  %12 = load ptr, ptr %11, align 8
  %13 = icmp ne ptr %12, null
  br i1 %13, label %14, label %40

14:                                               ; preds = %3
  store i32 0, ptr %8, align 4
  br label %15

15:                                               ; preds = %36, %14
  %16 = load i32, ptr %8, align 4
  %17 = getelementptr inbounds %class.ciObject, ptr %10, i32 0, i32 3
  %18 = load ptr, ptr %17, align 8
  %19 = call noundef i32 @_ZNK17GrowableArrayBase6lengthEv(ptr noundef nonnull align 4 dereferenceable(8) %18)
  %20 = icmp slt i32 %16, %19
  br i1 %20, label %21, label %39

21:                                               ; preds = %15
  %22 = getelementptr inbounds %class.ciObject, ptr %10, i32 0, i32 3
  %23 = load ptr, ptr %22, align 8
  %24 = load i32, ptr %8, align 4
  %25 = call noundef nonnull align 8 dereferenceable(20) ptr @_ZN17GrowableArrayViewIN8ciObject13ConstantValueEE2atEi(ptr noundef nonnull align 8 dereferenceable(16) %23, i32 noundef %24)
  call void @llvm.memcpy.p0.p0.i64(ptr align 8 %9, ptr align 8 %25, i64 24, i1 false)
  %26 = call noundef i32 @_ZNK8ciObject13ConstantValue3offEv(ptr noundef nonnull align 8 dereferenceable(20) %9)
  %27 = load i32, ptr %6, align 4
  %28 = icmp eq i32 %26, %27
  br i1 %28, label %29, label %35

29:                                               ; preds = %21
  %30 = call { i8, i64 } @_ZNK8ciObject13ConstantValue5valueEv(ptr noundef nonnull align 8 dereferenceable(20) %9)
  %31 = getelementptr inbounds { i8, i64 }, ptr %4, i32 0, i32 0
  %32 = extractvalue { i8, i64 } %30, 0
  store i8 %32, ptr %31, align 8
  %33 = getelementptr inbounds { i8, i64 }, ptr %4, i32 0, i32 1
  %34 = extractvalue { i8, i64 } %30, 1
  store i64 %34, ptr %33, align 8
  br label %41

35:                                               ; preds = %21
  br label %36

36:                                               ; preds = %35
  %37 = load i32, ptr %8, align 4
  %38 = add nsw i32 %37, 1
  store i32 %38, ptr %8, align 4
  br label %15, !llvm.loop !6

39:                                               ; preds = %15
  br label %40

40:                                               ; preds = %39, %3
  call void @_ZN10ciConstantC2Ev(ptr noundef nonnull align 8 dereferenceable(16) %4)
  br label %41

41:                                               ; preds = %40, %29
  %42 = load { i8, i64 }, ptr %4, align 8
  ret { i8, i64 } %42
}