; Function Attrs: mustprogress nofree norecurse nosync nounwind willreturn memory(read, inaccessiblemem: none) uwtable
define hidden { i8, i64 } @_ZN8ciObject26check_constant_value_cacheEi9BasicType(ptr nocapture noundef nonnull readonly align 8 dereferenceable(40) %0, i32 noundef %1, i8 noundef zeroext %2) local_unnamed_addr #7 align 2 {
  %4 = getelementptr inbounds i8, ptr %0, i64 32
  %5 = load ptr, ptr %4, align 8
  %.not = icmp eq ptr %5, null
  br i1 %.not, label %.loopexit, label %.preheader

.preheader:                                       ; preds = %3
  %6 = load i32, ptr %5, align 4
  %7 = icmp sgt i32 %6, 0
  br i1 %7, label %.lr.ph, label %.loopexit

.lr.ph:                                           ; preds = %.preheader
  %8 = getelementptr inbounds i8, ptr %5, i64 8
  %9 = load ptr, ptr %8, align 8
  %wide.trip.count = zext nneg i32 %6 to i64
  br label %11

10:                                               ; preds = %11
  %indvars.iv.next = add nuw nsw i64 %indvars.iv, 1
  %exitcond.not = icmp eq i64 %indvars.iv.next, %wide.trip.count
  br i1 %exitcond.not, label %.loopexit, label %11, !llvm.loop !8

11:                                               ; preds = %.lr.ph, %10
  %indvars.iv = phi i64 [ 0, %.lr.ph ], [ %indvars.iv.next, %10 ]
  %12 = getelementptr inbounds %"class.ciObject::ConstantValue", ptr %9, i64 %indvars.iv
  %.sroa.3.0..sroa_idx = getelementptr inbounds i8, ptr %12, i64 16
  %.sroa.3.0.copyload = load i32, ptr %.sroa.3.0..sroa_idx, align 8
  %13 = icmp eq i32 %.sroa.3.0.copyload, %1
  br i1 %13, label %14, label %10

14:                                               ; preds = %11
  %.sroa.24.0..sroa_idx = getelementptr inbounds i8, ptr %12, i64 8
  %.sroa.24.0.copyload = load i64, ptr %.sroa.24.0..sroa_idx, align 8
  %.sroa.0.0.copyload = load i8, ptr %12, align 8
  br label %.loopexit

.loopexit:                                        ; preds = %10, %.preheader, %3, %14
  %.sroa.05.0 = phi i8 [ %.sroa.0.0.copyload, %14 ], [ 99, %3 ], [ 99, %.preheader ], [ 99, %10 ]
  %.sroa.36.0 = phi i64 [ %.sroa.24.0.copyload, %14 ], [ -1, %3 ], [ -1, %.preheader ], [ -1, %10 ]
  %.fca.0.insert = insertvalue { i8, i64 } poison, i8 %.sroa.05.0, 0
  %.fca.1.insert = insertvalue { i8, i64 } %.fca.0.insert, i64 %.sroa.36.0, 1
  ret { i8, i64 } %.fca.1.insert
}